; Function Attrs: mustprogress nofree norecurse nosync nounwind willreturn memory(read, inaccessiblemem: none) uwtable
define dso_local noundef zeroext i1 @_ZN4llvm5RISCV11hasEqualFRMERKNS_12MachineInstrES3_(ptr nocapture noundef nonnull readonly align 8 dereferenceable(70) %0, ptr nocapture noundef nonnull readonly align 8 dereferenceable(70) %1) local_unnamed_addr #9 {
  %3 = getelementptr inbounds nuw i8, ptr %0, i64 68
  %4 = load i16, ptr %3, align 4
  %5 = tail call noundef signext i16 @_ZN4llvm5RISCV18getNamedOperandIdxEtt(i16 noundef zeroext %4, i16 noundef zeroext 3) #27
  %6 = getelementptr inbounds nuw i8, ptr %1, i64 68
  %7 = load i16, ptr %6, align 4
  %8 = tail call noundef signext i16 @_ZN4llvm5RISCV18getNamedOperandIdxEtt(i16 noundef zeroext %7, i16 noundef zeroext 3) #27
  %9 = or i16 %8, %5
  %or.cond.not = icmp sgt i16 %9, -1
  br i1 %or.cond.not, label %10, label %20

10:                                               ; preds = %2
  %11 = sext i16 %8 to i64
  %12 = sext i16 %5 to i64
  %13 = getelementptr inbounds nuw i8, ptr %0, i64 32
  %14 = load ptr, ptr %13, align 8
  %15 = and i64 %12, 4294967295
  %.sroa.113.0..sroa_idx = getelementptr inbounds %"class.llvm::MachineOperand", ptr %14, i64 %15, i32 3
  %.sroa.113.0.copyload = load i64, ptr %.sroa.113.0..sroa_idx, align 8
  %16 = getelementptr inbounds nuw i8, ptr %1, i64 32
  %17 = load ptr, ptr %16, align 8
  %18 = and i64 %11, 4294967295
  %.sroa.1.0..sroa_idx = getelementptr inbounds %"class.llvm::MachineOperand", ptr %17, i64 %18, i32 3
  %.sroa.1.0.copyload = load i64, ptr %.sroa.1.0..sroa_idx, align 8
  %19 = icmp eq i64 %.sroa.113.0.copyload, %.sroa.1.0.copyload
  br label %20

20:                                               ; preds = %2, %10
  %.0 = phi i1 [ %19, %10 ], [ false, %2 ]
  ret i1 %.0
}